target datalayout = "e-m:e-p270:32:32-p271:32:32-p272:64:64-i64:64-i128:128-f80:128-n8:16:32:64-S128"
target triple = "x86_64-pc-linux-gnu"

%"struct.OpenImageIO::v3_1_0::TypeDesc" = type { i8, i8, i8, i8, i32 }

@_ZN11OpenImageIO6v3_1_012_GLOBAL__N_113basetype_sizeE = internal global [16 x i32] [i32 0, i32 0, i32 1, i32 1, i32 2, i32 2, i32 4, i32 4, i32 8, i32 8, i32 2, i32 4, i32 8, i32 8, i32 8, i32 8], align 16

; Function Attrs: mustprogress nounwind uwtable
define noundef i64 @_ZNK11OpenImageIO6v3_1_08TypeDesc8basesizeEv(ptr noundef nonnull align 4 dereferenceable(8) %0) #7 align 2 {
  %2 = alloca i64, align 8
  %3 = alloca ptr, align 8
  store ptr %0, ptr %3, align 8, !tbaa !8
  %4 = load ptr, ptr %3, align 8
  %5 = getelementptr inbounds nuw %"struct.OpenImageIO::v3_1_0::TypeDesc", ptr %4, i32 0, i32 0
  %6 = load i8, ptr %5, align 4, !tbaa !12
  %7 = zext i8 %6 to i32
  %8 = icmp sge i32 %7, 16
  br i1 %8, label %9, label %10

9:                                                ; preds = %1
  store i64 0, ptr %2, align 8
  br label %17

10:                                               ; preds = %1
  %11 = getelementptr inbounds nuw %"struct.OpenImageIO::v3_1_0::TypeDesc", ptr %4, i32 0, i32 0
  %12 = load i8, ptr %11, align 4, !tbaa !12
  %13 = zext i8 %12 to i64
  %14 = getelementptr inbounds nuw [16 x i32], ptr @_ZN11OpenImageIO6v3_1_012_GLOBAL__N_113basetype_sizeE, i64 0, i64 %13
  %15 = load i32, ptr %14, align 4, !tbaa !21
  %16 = sext i32 %15 to i64
  store i64 %16, ptr %2, align 8
  br label %17

17:                                               ; preds = %10, %9
  %18 = load i64, ptr %2, align 8
  ret i64 %18
}

; Function Attrs: mustprogress nounwind uwtable
define linkonce_odr noundef i64 @_ZNK11OpenImageIO6v3_1_08TypeDesc11elementsizeEv(ptr noundef nonnull align 4 dereferenceable(8) %0) #7 comdat align 2 {
  %2 = alloca ptr, align 8
  store ptr %0, ptr %2, align 8, !tbaa !8
  %3 = load ptr, ptr %2, align 8
  %4 = getelementptr inbounds nuw %"struct.OpenImageIO::v3_1_0::TypeDesc", ptr %3, i32 0, i32 1
  %5 = load i8, ptr %4, align 1, !tbaa !15
  %6 = zext i8 %5 to i64
  %7 = call noundef i64 @_ZNK11OpenImageIO6v3_1_08TypeDesc8basesizeEv(ptr noundef nonnull align 4 dereferenceable(8) %3) #5
  %8 = mul i64 %6, %7
  ret i64 %8
}

; Function Attrs: inlinehint mustprogress nounwind uwtable
define linkonce_odr void @_ZSt4swapIN11OpenImageIO6v3_1_08TypeDesc8BASETYPEEENSt9enable_ifIXsr6__and_ISt6__not_ISt15__is_tuple_likeIT_EESt21is_move_constructibleIS7_ESt18is_move_assignableIS7_EEE5valueEvE4typeERS7_SG_(ptr noundef nonnull align 4 dereferenceable(4) %0, ptr noundef nonnull align 4 dereferenceable(4) %1) #0 comdat {
  %3 = alloca ptr, align 8
  %4 = alloca ptr, align 8
  %5 = alloca i32, align 4
  store ptr %0, ptr %3, align 8, !tbaa !76
  store ptr %1, ptr %4, align 8, !tbaa !76
  call void @llvm.lifetime.start.p0(i64 4, ptr %5) #5
  %6 = load ptr, ptr %3, align 8, !tbaa !76
  %7 = load i32, ptr %6, align 4, !tbaa !50
  store i32 %7, ptr %5, align 4, !tbaa !50
  %8 = load ptr, ptr %4, align 8, !tbaa !76
  %9 = load i32, ptr %8, align 4, !tbaa !50
  %10 = load ptr, ptr %3, align 8, !tbaa !76
  store i32 %9, ptr %10, align 4, !tbaa !50
  %11 = load i32, ptr %5, align 4, !tbaa !50
  %12 = load ptr, ptr %4, align 8, !tbaa !76
  store i32 %11, ptr %12, align 4, !tbaa !50
  call void @llvm.lifetime.end.p0(i64 4, ptr %5) #5
  ret void
}

; Function Attrs: mustprogress nounwind uwtable
define linkonce_odr noundef i64 @_ZNK11OpenImageIO6v3_1_08TypeDesc4sizeEv(ptr noundef nonnull align 4 dereferenceable(8) %0) #7 comdat align 2 {
  %2 = alloca ptr, align 8
  %3 = alloca i64, align 8
  store ptr %0, ptr %2, align 8, !tbaa !8
  %4 = load ptr, ptr %2, align 8
  call void @llvm.lifetime.start.p0(i64 8, ptr %3) #5
  %5 = getelementptr inbounds nuw %"struct.OpenImageIO::v3_1_0::TypeDesc", ptr %4, i32 0, i32 4
  %6 = load i32, ptr %5, align 4, !tbaa !18
  %7 = icmp sgt i32 %6, 0
  br i1 %7, label %8, label %11

8:                                                ; preds = %1
  %9 = getelementptr inbounds nuw %"struct.OpenImageIO::v3_1_0::TypeDesc", ptr %4, i32 0, i32 4
  %10 = load i32, ptr %9, align 4, !tbaa !18
  br label %12

11:                                               ; preds = %1
  br label %12

12:                                               ; preds = %11, %8
  %13 = phi i32 [ %10, %8 ], [ 1, %11 ]
  %14 = sext i32 %13 to i64
  store i64 %14, ptr %3, align 8, !tbaa !45
  %15 = load i64, ptr %3, align 8, !tbaa !45
  %16 = call noundef i64 @_ZNK11OpenImageIO6v3_1_08TypeDesc11elementsizeEv(ptr noundef nonnull align 4 dereferenceable(8) %4) #5
  %17 = mul i64 %15, %16
  call void @llvm.lifetime.end.p0(i64 8, ptr %3) #5
  ret i64 %17
}

; Function Attrs: mustprogress nounwind uwtable
define linkonce_odr void @_ZN11OpenImageIO6v3_1_08TypeDescC2ENS1_8BASETYPEENS1_9AGGREGATEENS1_12VECSEMANTICSEi(ptr noundef nonnull align 4 dereferenceable(8) %0, i32 noundef %1, i32 noundef %2, i32 noundef %3, i32 noundef %4) unnamed_addr #7 comdat align 2 {
  %6 = alloca ptr, align 8
  %7 = alloca i32, align 4
  %8 = alloca i32, align 4
  %9 = alloca i32, align 4
  %10 = alloca i32, align 4
  store ptr %0, ptr %6, align 8, !tbaa !8
  store i32 %1, ptr %7, align 4, !tbaa !50
  store i32 %2, ptr %8, align 4, !tbaa !52
  store i32 %3, ptr %9, align 4, !tbaa !54
  store i32 %4, ptr %10, align 4, !tbaa !21
  %11 = load ptr, ptr %6, align 8
  %12 = getelementptr inbounds nuw %"struct.OpenImageIO::v3_1_0::TypeDesc", ptr %11, i32 0, i32 0
  %13 = load i32, ptr %7, align 4, !tbaa !50
  %14 = trunc i32 %13 to i8
  store i8 %14, ptr %12, align 4, !tbaa !12
  %15 = getelementptr inbounds nuw %"struct.OpenImageIO::v3_1_0::TypeDesc", ptr %11, i32 0, i32 1
  %16 = load i32, ptr %8, align 4, !tbaa !52
  %17 = trunc i32 %16 to i8
  store i8 %17, ptr %15, align 1, !tbaa !15
  %18 = getelementptr inbounds nuw %"struct.OpenImageIO::v3_1_0::TypeDesc", ptr %11, i32 0, i32 2
  %19 = load i32, ptr %9, align 4, !tbaa !54
  %20 = trunc i32 %19 to i8
  store i8 %20, ptr %18, align 2, !tbaa !16
  %21 = getelementptr inbounds nuw %"struct.OpenImageIO::v3_1_0::TypeDesc", ptr %11, i32 0, i32 3
  store i8 0, ptr %21, align 1, !tbaa !17
  %22 = getelementptr inbounds nuw %"struct.OpenImageIO::v3_1_0::TypeDesc", ptr %11, i32 0, i32 4
  %23 = load i32, ptr %10, align 4, !tbaa !21
  store i32 %23, ptr %22, align 4, !tbaa !18
  ret void
}

; Function Attrs: mustprogress nounwind uwtable
define noundef i32 @_ZN11OpenImageIO6v3_1_08TypeDesc14basetype_mergeES1_S1_(i64 %0, i64 %1) #7 align 2 {
  %3 = alloca i32, align 4
  %4 = alloca %"struct.OpenImageIO::v3_1_0::TypeDesc", align 4
  %5 = alloca %"struct.OpenImageIO::v3_1_0::TypeDesc", align 4
  %6 = alloca i32, align 4
  %7 = alloca i32, align 4
  %8 = alloca i32, align 4
  %9 = alloca %"struct.OpenImageIO::v3_1_0::TypeDesc", align 4
  %10 = alloca %"struct.OpenImageIO::v3_1_0::TypeDesc", align 4
  store i64 %0, ptr %4, align 4
  store i64 %1, ptr %5, align 4
  call void @llvm.lifetime.start.p0(i64 4, ptr %6) #5
  %11 = getelementptr inbounds nuw %"struct.OpenImageIO::v3_1_0::TypeDesc", ptr %4, i32 0, i32 0
  %12 = load i8, ptr %11, align 4, !tbaa !12
  %13 = zext i8 %12 to i32
  store i32 %13, ptr %6, align 4, !tbaa !50
  call void @llvm.lifetime.start.p0(i64 4, ptr %7) #5
  %14 = getelementptr inbounds nuw %"struct.OpenImageIO::v3_1_0::TypeDesc", ptr %5, i32 0, i32 0
  %15 = load i8, ptr %14, align 4, !tbaa !12
  %16 = zext i8 %15 to i32
  store i32 %16, ptr %7, align 4, !tbaa !50
  %17 = load i32, ptr %6, align 4, !tbaa !50
  %18 = load i32, ptr %7, align 4, !tbaa !50
  %19 = icmp eq i32 %17, %18
  br i1 %19, label %20, label %22

20:                                               ; preds = %2
  %21 = load i32, ptr %6, align 4, !tbaa !50
  store i32 %21, ptr %3, align 4
  store i32 1, ptr %8, align 4
  br label %101

22:                                               ; preds = %2
  %23 = load i32, ptr %6, align 4, !tbaa !50
  %24 = icmp eq i32 %23, 0
  br i1 %24, label %25, label %27

25:                                               ; preds = %22
  %26 = load i32, ptr %7, align 4, !tbaa !50
  store i32 %26, ptr %3, align 4
  store i32 1, ptr %8, align 4
  br label %101

27:                                               ; preds = %22
  %28 = load i32, ptr %7, align 4, !tbaa !50
  %29 = icmp eq i32 %28, 0
  br i1 %29, label %30, label %32

30:                                               ; preds = %27
  %31 = load i32, ptr %6, align 4, !tbaa !50
  store i32 %31, ptr %3, align 4
  store i32 1, ptr %8, align 4
  br label %101

32:                                               ; preds = %27
  call void @llvm.lifetime.start.p0(i64 8, ptr %9) #5
  %33 = load i32, ptr %6, align 4, !tbaa !50
  call void @_ZN11OpenImageIO6v3_1_08TypeDescC2ENS1_8BASETYPEENS1_9AGGREGATEENS1_12VECSEMANTICSEi(ptr noundef nonnull align 4 dereferenceable(8) %9, i32 noundef %33, i32 noundef 1, i32 noundef 0, i32 noundef 0) #5
  %34 = call noundef i64 @_ZNK11OpenImageIO6v3_1_08TypeDesc4sizeEv(ptr noundef nonnull align 4 dereferenceable(8) %9) #5
  call void @llvm.lifetime.start.p0(i64 8, ptr %10) #5
  %35 = load i32, ptr %7, align 4, !tbaa !50
  call void @_ZN11OpenImageIO6v3_1_08TypeDescC2ENS1_8BASETYPEENS1_9AGGREGATEENS1_12VECSEMANTICSEi(ptr noundef nonnull align 4 dereferenceable(8) %10, i32 noundef %35, i32 noundef 1, i32 noundef 0, i32 noundef 0) #5
  %36 = call noundef i64 @_ZNK11OpenImageIO6v3_1_08TypeDesc4sizeEv(ptr noundef nonnull align 4 dereferenceable(8) %10) #5
  %37 = icmp ult i64 %34, %36
  call void @llvm.lifetime.end.p0(i64 8, ptr %10) #5
  call void @llvm.lifetime.end.p0(i64 8, ptr %9) #5
  br i1 %37, label %38, label %39

38:                                               ; preds = %32
  call void @_ZSt4swapIN11OpenImageIO6v3_1_08TypeDesc8BASETYPEEENSt9enable_ifIXsr6__and_ISt6__not_ISt15__is_tuple_likeIT_EESt21is_move_constructibleIS7_ESt18is_move_assignableIS7_EEE5valueEvE4typeERS7_SG_(ptr noundef nonnull align 4 dereferenceable(4) %6, ptr noundef nonnull align 4 dereferenceable(4) %7) #5
  br label %39

39:                                               ; preds = %38, %32
  %40 = load i32, ptr %6, align 4, !tbaa !50
  %41 = icmp eq i32 %40, 12
  br i1 %41, label %45, label %42

42:                                               ; preds = %39
  %43 = load i32, ptr %6, align 4, !tbaa !50
  %44 = icmp eq i32 %43, 11
  br i1 %44, label %45, label %47

45:                                               ; preds = %42, %39
  %46 = load i32, ptr %6, align 4, !tbaa !50
  store i32 %46, ptr %3, align 4
  store i32 1, ptr %8, align 4
  br label %101

47:                                               ; preds = %42
  %48 = load i32, ptr %6, align 4, !tbaa !50
  %49 = icmp eq i32 %48, 6
  br i1 %49, label %50, label %58

50:                                               ; preds = %47
  %51 = load i32, ptr %7, align 4, !tbaa !50
  %52 = icmp eq i32 %51, 4
  br i1 %52, label %56, label %53

53:                                               ; preds = %50
  %54 = load i32, ptr %7, align 4, !tbaa !50
  %55 = icmp eq i32 %54, 2
  br i1 %55, label %56, label %58

56:                                               ; preds = %53, %50
  %57 = load i32, ptr %6, align 4, !tbaa !50
  store i32 %57, ptr %3, align 4
  store i32 1, ptr %8, align 4
  br label %101

58:                                               ; preds = %53, %47
  %59 = load i32, ptr %6, align 4, !tbaa !50
  %60 = icmp eq i32 %59, 7
  br i1 %60, label %61, label %75

61:                                               ; preds = %58
  %62 = load i32, ptr %7, align 4, !tbaa !50
  %63 = icmp eq i32 %62, 5
  br i1 %63, label %73, label %64

64:                                               ; preds = %61
  %65 = load i32, ptr %7, align 4, !tbaa !50
  %66 = icmp eq i32 %65, 4
  br i1 %66, label %73, label %67

67:                                               ; preds = %64
  %68 = load i32, ptr %7, align 4, !tbaa !50
  %69 = icmp eq i32 %68, 3
  br i1 %69, label %73, label %70

70:                                               ; preds = %67
  %71 = load i32, ptr %7, align 4, !tbaa !50
  %72 = icmp eq i32 %71, 2
  br i1 %72, label %73, label %75

73:                                               ; preds = %70, %67, %64, %61
  %74 = load i32, ptr %6, align 4, !tbaa !50
  store i32 %74, ptr %3, align 4
  store i32 1, ptr %8, align 4
  br label %101

75:                                               ; preds = %70, %58
  %76 = load i32, ptr %6, align 4, !tbaa !50
  %77 = icmp eq i32 %76, 4
  br i1 %77, label %81, label %78

78:                                               ; preds = %75
  %79 = load i32, ptr %6, align 4, !tbaa !50
  %80 = icmp eq i32 %79, 10
  br i1 %80, label %81, label %86

81:                                               ; preds = %78, %75
  %82 = load i32, ptr %7, align 4, !tbaa !50
  %83 = icmp eq i32 %82, 2
  br i1 %83, label %84, label %86

84:                                               ; preds = %81
  %85 = load i32, ptr %6, align 4, !tbaa !50
  store i32 %85, ptr %3, align 4
  store i32 1, ptr %8, align 4
  br label %101

86:                                               ; preds = %81, %78
  %87 = load i32, ptr %6, align 4, !tbaa !50
  %88 = icmp eq i32 %87, 5
  br i1 %88, label %92, label %89

89:                                               ; preds = %86
  %90 = load i32, ptr %6, align 4, !tbaa !50
  %91 = icmp eq i32 %90, 10
  br i1 %91, label %92, label %100

92:                                               ; preds = %89, %86
  %93 = load i32, ptr %7, align 4, !tbaa !50
  %94 = icmp eq i32 %93, 3
  br i1 %94, label %98, label %95

95:                                               ; preds = %92
  %96 = load i32, ptr %7, align 4, !tbaa !50
  %97 = icmp eq i32 %96, 2
  br i1 %97, label %98, label %100

98:                                               ; preds = %95, %92
  %99 = load i32, ptr %6, align 4, !tbaa !50
  store i32 %99, ptr %3, align 4
  store i32 1, ptr %8, align 4
  br label %101

100:                                              ; preds = %95, %89
  store i32 11, ptr %3, align 4
  store i32 1, ptr %8, align 4
  br label %101

101:                                              ; preds = %100, %98, %84, %73, %56, %45, %30, %25, %20
  call void @llvm.lifetime.end.p0(i64 4, ptr %7) #5
  call void @llvm.lifetime.end.p0(i64 4, ptr %6) #5
  %102 = load i32, ptr %3, align 4
  ret i32 %102
}